; Function Attrs: mustprogress uwtable
define hidden void @_ZN5osgeo4proj9operation26CoordinateOperationContextC2ERKS2_(ptr noundef nonnull writeonly align 8 captures(none) dereferenceable(16) initializes((0, 8)) %0, ptr noundef nonnull readonly align 8 captures(none) dereferenceable(16) %1) unnamed_addr #2 align 2 personality ptr @__gxx_personality_v0 {
  store ptr getelementptr inbounds nuw inrange(-16, 16) (i8, ptr @_ZTVN5osgeo4proj9operation26CoordinateOperationContextE, i64 16), ptr %0, align 8, !tbaa !3
  %3 = getelementptr inbounds nuw i8, ptr %1, i64 8
  %4 = load ptr, ptr %3, align 8, !tbaa !6
  tail call void @llvm.experimental.noalias.scope.decl(metadata !13)
  %5 = tail call noalias noundef nonnull dereferenceable(128) ptr @_Znwm(i64 noundef 128) #34, !noalias !13
  invoke void @_ZN5osgeo4proj9operation26CoordinateOperationContext7PrivateC2ERKS3_(ptr noundef nonnull align 8 dereferenceable(128) %5, ptr noundef nonnull align 8 dereferenceable(128) %4)
          to label %_ZSt11make_uniqueIN5osgeo4proj9operation26CoordinateOperationContext7PrivateEJRS4_EENSt8__detail9_MakeUniqIT_E15__single_objectEDpOT0_.exit unwind label %6, !noalias !13

6:                                                ; preds = %2
  %7 = landingpad { ptr, i32 }
          cleanup
  tail call void @_ZdlPvm(ptr noundef nonnull %5, i64 noundef 128) #33, !noalias !13
  resume { ptr, i32 } %7

_ZSt11make_uniqueIN5osgeo4proj9operation26CoordinateOperationContext7PrivateEJRS4_EENSt8__detail9_MakeUniqIT_E15__single_objectEDpOT0_.exit: ; preds = %2
  %8 = getelementptr inbounds nuw i8, ptr %0, i64 8
  store ptr %5, ptr %8, align 8, !tbaa !6, !alias.scope !13
  ret void
}